; Function Attrs: mustprogress uwtable
define hidden void @_ZNK4cvc58internal9TrustNode11toProofNodeEv(ptr dead_on_unwind noalias writable sret(%"class.std::shared_ptr") align 8 %0, ptr noundef nonnull readonly align 8 captures(none) dereferenceable(24) %1) local_unnamed_addr #4 align 2 personality ptr @__gxx_personality_v0 {
  %3 = alloca %"class.cvc5::internal::NodeTemplate", align 8
  %4 = getelementptr inbounds nuw i8, ptr %1, i64 16
  %5 = load ptr, ptr %4, align 8, !tbaa !30
  %6 = icmp eq ptr %5, null
  br i1 %6, label %7, label %8

7:                                                ; preds = %2
  tail call void @llvm.memset.p0.i64(ptr noundef nonnull align 8 dereferenceable(16) %0, i8 0, i64 16, i1 false)
  br label %_ZN4cvc58internal12NodeTemplateILb1EED2Ev.exit

8:                                                ; preds = %2
  %9 = getelementptr inbounds nuw i8, ptr %1, i64 8
  %10 = load ptr, ptr %9, align 8, !tbaa !3
  store ptr %10, ptr %3, align 8, !tbaa !3
  %11 = load i64, ptr %10, align 8
  %12 = lshr i64 %11, 40
  %13 = trunc nuw nsw i64 %12 to i32
  %14 = and i32 %13, 1048575
  %15 = icmp samesign ult i32 %14, 1048574
  br i1 %15, label %16, label %21, !prof !9

16:                                               ; preds = %8
  %17 = add i64 %11, 1099511627776
  %18 = and i64 %17, 1152920405095219200
  %19 = and i64 %11, -1152920405095219201
  %20 = or disjoint i64 %18, %19
  store i64 %20, ptr %10, align 8
  br label %_ZN4cvc58internal12NodeTemplateILb1EEC2ERKS2_.exit

21:                                               ; preds = %8
  %22 = icmp eq i32 %14, 1048574
  br i1 %22, label %23, label %_ZN4cvc58internal12NodeTemplateILb1EEC2ERKS2_.exit, !prof !10

23:                                               ; preds = %21
  %24 = or i64 %11, 1152920405095219200
  store i64 %24, ptr %10, align 8
  tail call void @_ZN4cvc58internal4expr9NodeValue20markRefCountMaxedOutEv(ptr noundef nonnull align 8 dereferenceable(24) %10)
  br label %_ZN4cvc58internal12NodeTemplateILb1EEC2ERKS2_.exit

_ZN4cvc58internal12NodeTemplateILb1EEC2ERKS2_.exit: ; preds = %16, %21, %23
  %25 = load ptr, ptr %5, align 8, !tbaa !69
  %26 = getelementptr inbounds nuw i8, ptr %25, i64 16
  %27 = load ptr, ptr %26, align 8
  invoke void %27(ptr dead_on_unwind writable sret(%"class.std::shared_ptr") align 8 %0, ptr noundef nonnull align 8 dereferenceable(8) %5, ptr noundef nonnull %3)
          to label %28 unwind label %42

28:                                               ; preds = %_ZN4cvc58internal12NodeTemplateILb1EEC2ERKS2_.exit
  %29 = load ptr, ptr %3, align 8, !tbaa !3
  %30 = load i64, ptr %29, align 8
  %31 = and i64 %30, 1152920405095219200
  %.not.i.i = icmp eq i64 %31, 1152920405095219200
  br i1 %.not.i.i, label %_ZN4cvc58internal12NodeTemplateILb1EED2Ev.exit, label %32, !prof !10

32:                                               ; preds = %28
  %33 = add i64 %30, 1152920405095219200
  %34 = and i64 %33, 1152920405095219200
  %35 = and i64 %30, -1152920405095219201
  %36 = or disjoint i64 %34, %35
  store i64 %36, ptr %29, align 8
  %37 = icmp eq i64 %34, 0
  br i1 %37, label %38, label %_ZN4cvc58internal12NodeTemplateILb1EED2Ev.exit, !prof !10

38:                                               ; preds = %32
  invoke void @_ZN4cvc58internal4expr9NodeValue15markForDeletionEv(ptr noundef nonnull align 8 dereferenceable(24) %29)
          to label %_ZN4cvc58internal12NodeTemplateILb1EED2Ev.exit unwind label %39

39:                                               ; preds = %38
  %40 = landingpad { ptr, i32 }
          catch ptr null
  %41 = extractvalue { ptr, i32 } %40, 0
  call void @__clang_call_terminate(ptr %41) #18
  unreachable

42:                                               ; preds = %_ZN4cvc58internal12NodeTemplateILb1EEC2ERKS2_.exit
  %43 = landingpad { ptr, i32 }
          cleanup
  call void @_ZN4cvc58internal12NodeTemplateILb1EED2Ev(ptr noundef nonnull align 8 dereferenceable(8) %3) #17
  resume { ptr, i32 } %43

_ZN4cvc58internal12NodeTemplateILb1EED2Ev.exit:   ; preds = %38, %32, %28, %7
  ret void
}